; Function Attrs: nounwind uwtable
define dso_local void @BecomeLockGroupLeader() local_unnamed_addr #0 {
  %1 = load ptr, ptr @MyProc, align 8
  %2 = getelementptr inbounds nuw i8, ptr %1, i64 792
  %3 = load ptr, ptr %2, align 8
  %4 = icmp eq ptr %3, %1
  br i1 %4, label %27, label %5

5:                                                ; preds = %0
  %6 = load ptr, ptr @MainLWLockArray, align 8
  %7 = load ptr, ptr @ProcGlobal, align 8
  %8 = load ptr, ptr %7, align 8
  %9 = ptrtoint ptr %1 to i64
  %10 = ptrtoint ptr %8 to i64
  %11 = sub i64 %9, %10
  %12 = sdiv exact i64 %11, 832
  %13 = srem i64 %12, 16
  %14 = getelementptr %union.LWLockPadded, ptr %6, i64 %13
  %15 = getelementptr i8, ptr %14, i64 23168
  %16 = tail call zeroext i1 @LWLockAcquire(ptr noundef %15, i32 noundef 0) #14
  %17 = load ptr, ptr @MyProc, align 8
  %18 = getelementptr inbounds nuw i8, ptr %17, i64 792
  store ptr %17, ptr %18, align 8
  %19 = getelementptr inbounds nuw i8, ptr %17, i64 800
  %20 = getelementptr inbounds nuw i8, ptr %17, i64 816
  %21 = getelementptr inbounds nuw i8, ptr %17, i64 808
  %22 = load ptr, ptr %21, align 8
  %23 = icmp eq ptr %22, null
  br i1 %23, label %24, label %dlist_push_head.exit

24:                                               ; preds = %5
  store ptr %19, ptr %19, align 8
  br label %dlist_push_head.exit

dlist_push_head.exit:                             ; preds = %5, %24
  %25 = phi ptr [ %19, %24 ], [ %22, %5 ]
  %26 = getelementptr inbounds nuw i8, ptr %17, i64 824
  store ptr %25, ptr %26, align 8
  store ptr %19, ptr %20, align 8
  store ptr %20, ptr %25, align 8
  store ptr %20, ptr %21, align 8
  tail call void @LWLockRelease(ptr noundef %15) #14
  br label %27

27:                                               ; preds = %0, %dlist_push_head.exit
  ret void
}